target datalayout = "e-m:e-p270:32:32-p271:32:32-p272:64:64-i64:64-i128:128-f80:128-n8:16:32:64-S128"
target triple = "x86_64-pc-linux-gnu"

@.str.24 = private unnamed_addr constant [5 x i8] c"TRUE\00", align 1
@.str.25 = private unnamed_addr constant [6 x i8] c"FALSE\00", align 1
@.str.26 = private unnamed_addr constant [42 x i8] c"invalid value: %s (must be true or false)\00", align 1

; Function Attrs: null_pointer_is_valid sspstrong uwtable
define zeroext i1 @uat_fld_chk_bool(ptr noundef %0, ptr noundef %1, i32 noundef %2, ptr noundef %3, ptr noundef %4, ptr noundef %5) #0 {
  %7 = alloca i1, align 1
  %8 = alloca ptr, align 8
  %9 = alloca ptr, align 8
  %10 = alloca i32, align 4
  %11 = alloca ptr, align 8
  %12 = alloca ptr, align 8
  %13 = alloca ptr, align 8
  %14 = alloca ptr, align 8
  %15 = alloca i32, align 4
  store ptr %0, ptr %8, align 8
  store ptr %1, ptr %9, align 8
  store i32 %2, ptr %10, align 4
  store ptr %3, ptr %11, align 8
  store ptr %4, ptr %12, align 8
  store ptr %5, ptr %13, align 8
  call void @llvm.lifetime.start.p0(i64 8, ptr %14) #13
  %16 = load ptr, ptr %9, align 8
  %17 = load i32, ptr %10, align 4
  %18 = zext i32 %17 to i64
  %19 = call noalias ptr @g_strndup(ptr noundef %16, i64 noundef %18)
  store ptr %19, ptr %14, align 8
  %20 = load ptr, ptr %14, align 8
  %21 = call i32 @g_strcmp0(ptr noundef %20, ptr noundef @.str.24)
  %22 = icmp eq i32 %21, 0
  br i1 %22, label %27, label %23

23:                                               ; preds = %6
  %24 = load ptr, ptr %14, align 8
  %25 = call i32 @g_strcmp0(ptr noundef %24, ptr noundef @.str.25)
  %26 = icmp eq i32 %25, 0
  br i1 %26, label %27, label %30

27:                                               ; preds = %23, %6
  %28 = load ptr, ptr %13, align 8
  store ptr null, ptr %28, align 8
  %29 = load ptr, ptr %14, align 8
  call void @g_free(ptr noundef %29)
  store i1 true, ptr %7, align 1
  store i32 1, ptr %15, align 4
  br label %35

30:                                               ; preds = %23
  %31 = load ptr, ptr %14, align 8
  %32 = call noalias ptr (ptr, ptr, ...) @wmem_strdup_printf(ptr noundef null, ptr noundef @.str.26, ptr noundef %31)
  %33 = load ptr, ptr %13, align 8
  store ptr %32, ptr %33, align 8
  %34 = load ptr, ptr %14, align 8
  call void @g_free(ptr noundef %34)
  store i1 false, ptr %7, align 1
  store i32 1, ptr %15, align 4
  br label %35

35:                                               ; preds = %30, %27
  call void @llvm.lifetime.end.p0(i64 8, ptr %14) #13
  %36 = load i1, ptr %7, align 1
  ret i1 %36
}