; Function Attrs: null_pointer_is_valid sspstrong uwtable
define noundef zeroext i1 @uat_fld_chk_bool(ptr noundef readnone captures(none) %0, ptr noundef %1, i32 noundef %2, ptr noundef readnone captures(none) %3, ptr noundef readnone captures(none) %4, ptr noundef writeonly captures(none) initializes((0, 8)) %5) local_unnamed_addr #0 {
  %7 = zext i32 %2 to i64
  %8 = tail call noalias ptr @g_strndup(ptr noundef %1, i64 noundef %7)
  %9 = tail call i32 @g_strcmp0(ptr noundef %8, ptr noundef nonnull @.str.24)
  %10 = icmp eq i32 %9, 0
  br i1 %10, label %16, label %11

11:                                               ; preds = %6
  %12 = tail call i32 @g_strcmp0(ptr noundef %8, ptr noundef nonnull @.str.25)
  %13 = icmp eq i32 %12, 0
  br i1 %13, label %16, label %14

14:                                               ; preds = %11
  %15 = tail call noalias ptr (ptr, ptr, ...) @wmem_strdup_printf(ptr noundef null, ptr noundef nonnull @.str.26, ptr noundef %8)
  br label %16

16:                                               ; preds = %6, %11, %14
  %.sink = phi ptr [ %15, %14 ], [ null, %11 ], [ null, %6 ]
  %.0 = phi i1 [ false, %14 ], [ true, %11 ], [ true, %6 ]
  store ptr %.sink, ptr %5, align 8
  tail call void @g_free(ptr noundef %8)
  ret i1 %.0
}